target datalayout = "e-m:e-p270:32:32-p271:32:32-p272:64:64-i64:64-i128:128-f80:128-n8:16:32:64-S128"
target triple = "x86_64-pc-linux-gnu"

@.str.216 = private unnamed_addr constant [17 x i8] c"query failed: %s\00", align 1
@.str.217 = private unnamed_addr constant [14 x i8] c"Query was: %s\00", align 1

; Function Attrs: nounwind uwtable
define internal void @executeStatement(ptr noundef %0, ptr noundef %1) #0 {
  %3 = alloca ptr, align 8
  %4 = alloca ptr, align 8
  %5 = alloca ptr, align 8
  store ptr %0, ptr %3, align 8
  store ptr %1, ptr %4, align 8
  call void @llvm.lifetime.start.p0(i64 8, ptr %5) #14
  %6 = load ptr, ptr %3, align 8
  %7 = load ptr, ptr %4, align 8
  %8 = call ptr @PQexec(ptr noundef %6, ptr noundef %7)
  store ptr %8, ptr %5, align 8
  %9 = load ptr, ptr %5, align 8
  %10 = call i32 @PQresultStatus(ptr noundef %9)
  %11 = icmp ne i32 %10, 1
  br i1 %11, label %12, label %16

12:                                               ; preds = %2
  %13 = load ptr, ptr %3, align 8
  %14 = call ptr @PQerrorMessage(ptr noundef %13)
  call void (i32, i32, ptr, ...) @pg_log_generic(i32 noundef 4, i32 noundef 0, ptr noundef @.str.216, ptr noundef %14)
  %15 = load ptr, ptr %4, align 8
  call void (i32, i32, ptr, ...) @pg_log_generic(i32 noundef 4, i32 noundef 1, ptr noundef @.str.217, ptr noundef %15)
  call void @exit(i32 noundef 1) #16
  unreachable

16:                                               ; preds = %2
  %17 = load ptr, ptr %5, align 8
  call void @PQclear(ptr noundef %17)
  call void @llvm.lifetime.end.p0(i64 8, ptr %5) #14
  ret void
}