; Function Attrs: nounwind uwtable
define internal fastcc void @executeStatement(ptr noundef nonnull %0, ptr noundef %1) unnamed_addr #0 {
  %3 = tail call ptr @PQexec(ptr noundef nonnull %0, ptr noundef %1) #25
  %4 = tail call i32 @PQresultStatus(ptr noundef %3) #25
  %.not = icmp eq i32 %4, 1
  br i1 %.not, label %7, label %5

5:                                                ; preds = %2
  %6 = tail call ptr @PQerrorMessage(ptr noundef nonnull %0) #25
  tail call void (i32, i32, ptr, ...) @pg_log_generic(i32 noundef 4, i32 noundef 0, ptr noundef nonnull @.str.216, ptr noundef %6) #25
  tail call void (i32, i32, ptr, ...) @pg_log_generic(i32 noundef 4, i32 noundef 1, ptr noundef nonnull @.str.217, ptr noundef %1) #25
  tail call void @exit(i32 noundef 1) #26
  unreachable

7:                                                ; preds = %2
  tail call void @PQclear(ptr noundef %3) #25
  ret void
}